target datalayout = "e-m:e-p270:32:32-p271:32:32-p272:64:64-i64:64-i128:128-f80:128-n8:16:32:64-S128"
target triple = "x86_64-pc-linux-gnu"

%struct.IDAMemRec = type { double, ptr, ptr, i32, double, double, ptr, i32, ptr, ptr, i32, ptr, ptr, i32, i32, double, double, ptr, i32, i32, i32, ptr, ptr, i32, ptr, ptr, ptr, i32, double, i32, i32, double, ptr, ptr, i32, ptr, ptr, i32, i32, i32, double, ptr, ptr, [6 x ptr], [6 x double], [6 x double], [6 x double], [6 x double], [6 x double], ptr, ptr, ptr, ptr, ptr, ptr, ptr, ptr, ptr, ptr, ptr, ptr, ptr, ptr, ptr, [6 x ptr], ptr, ptr, ptr, ptr, [6 x ptr], ptr, ptr, ptr, ptr, ptr, ptr, ptr, ptr, ptr, ptr, ptr, ptr, ptr, ptr, [6 x ptr], ptr, ptr, ptr, ptr, ptr, double, ptr, ptr, i32, i32, i32, i32, i32, i32, i32, double, double, double, i32, double, i32, i32, i32, i32, double, double, double, double, double, double, double, double, double, double, double, double, double, double, i32, i32, i32, i32, i32, i64, double, i32, i64, i64, i64, i64, i64, i64, i64, i64, i64, i64, i64, i64, i64, i64, i64, i64, i64, i64, i64, i64, i64, i64, i64, i64, ptr, ptr, ptr, i32, i32, i32, i32, i32, i32, i32, i32, i32, i32, i32, i32, i32, ptr, ptr, ptr, ptr, ptr, ptr, i32, i32, i32, i32, i32, i32, double, double, double, ptr, i32, ptr, ptr, double, double, double, ptr, ptr, ptr, double, double, i32, i32, i64, ptr, i32, i32, ptr, i32 }
%struct.IDADlsMemRec = type { i32, i64, i64, i64, i64, i32, ptr, ptr, ptr, ptr, ptr, ptr, i64, i64, i64 }

; Function Attrs: nounwind uwtable
define internal i32 @IDADenseSolve(ptr noundef %0, ptr noundef %1, ptr noundef %2, ptr noundef %3, ptr noundef %4, ptr noundef %5) #0 {
  %7 = alloca ptr, align 8
  %8 = alloca ptr, align 8
  %9 = alloca ptr, align 8
  %10 = alloca ptr, align 8
  %11 = alloca ptr, align 8
  %12 = alloca ptr, align 8
  %13 = alloca ptr, align 8
  %14 = alloca ptr, align 8
  store ptr %0, ptr %7, align 8, !tbaa !9
  store ptr %1, ptr %8, align 8, !tbaa !51
  store ptr %2, ptr %9, align 8, !tbaa !51
  store ptr %3, ptr %10, align 8, !tbaa !51
  store ptr %4, ptr %11, align 8, !tbaa !51
  store ptr %5, ptr %12, align 8, !tbaa !51
  call void @llvm.lifetime.start.p0(i64 8, ptr %13) #5
  call void @llvm.lifetime.start.p0(i64 8, ptr %14) #5
  %15 = load ptr, ptr %7, align 8, !tbaa !9
  %16 = getelementptr inbounds nuw %struct.IDAMemRec, ptr %15, i32 0, i32 176
  %17 = load ptr, ptr %16, align 8, !tbaa !47
  store ptr %17, ptr %13, align 8, !tbaa !33
  %18 = load ptr, ptr %8, align 8, !tbaa !51
  %19 = call ptr @N_VGetArrayPointer(ptr noundef %18)
  store ptr %19, ptr %14, align 8, !tbaa !54
  %20 = load ptr, ptr %13, align 8, !tbaa !33
  %21 = getelementptr inbounds nuw %struct.IDADlsMemRec, ptr %20, i32 0, i32 9
  %22 = load ptr, ptr %21, align 8, !tbaa !45
  %23 = load ptr, ptr %13, align 8, !tbaa !33
  %24 = getelementptr inbounds nuw %struct.IDADlsMemRec, ptr %23, i32 0, i32 11
  %25 = load ptr, ptr %24, align 8, !tbaa !46
  %26 = load ptr, ptr %14, align 8, !tbaa !54
  call void @DenseGETRS(ptr noundef %22, ptr noundef %25, ptr noundef %26)
  %27 = load ptr, ptr %7, align 8, !tbaa !9
  %28 = getelementptr inbounds nuw %struct.IDAMemRec, ptr %27, i32 0, i32 117
  %29 = load double, ptr %28, align 8, !tbaa !55
  %30 = fcmp une double %29, 1.000000e+00
  br i1 %30, label %31, label %39

31:                                               ; preds = %6
  %32 = load ptr, ptr %7, align 8, !tbaa !9
  %33 = getelementptr inbounds nuw %struct.IDAMemRec, ptr %32, i32 0, i32 117
  %34 = load double, ptr %33, align 8, !tbaa !55
  %35 = fadd double 1.000000e+00, %34
  %36 = fdiv double 2.000000e+00, %35
  %37 = load ptr, ptr %8, align 8, !tbaa !51
  %38 = load ptr, ptr %8, align 8, !tbaa !51
  call void @N_VScale(double noundef %36, ptr noundef %37, ptr noundef %38)
  br label %39

39:                                               ; preds = %31, %6
  %40 = load ptr, ptr %13, align 8, !tbaa !33
  %41 = getelementptr inbounds nuw %struct.IDADlsMemRec, ptr %40, i32 0, i32 14
  store i64 0, ptr %41, align 8, !tbaa !42
  call void @llvm.lifetime.end.p0(i64 8, ptr %14) #5
  call void @llvm.lifetime.end.p0(i64 8, ptr %13) #5
  ret i32 0
}